; Function Attrs: nounwind uwtable
define dso_local void @set_values_size_estimates(ptr noundef %0, ptr noundef captures(none) initializes((16, 24), (200, 208)) %1) local_unnamed_addr #2 {
  %3 = alloca %struct.cost_qual_eval_context, align 8
  %4 = getelementptr inbounds nuw i8, ptr %0, i64 72
  %5 = load ptr, ptr %4, align 8
  %.not = icmp eq ptr %5, null
  br i1 %.not, label %11, label %6

6:                                                ; preds = %2
  %7 = getelementptr inbounds nuw i8, ptr %1, i64 112
  %8 = load i32, ptr %7, align 8
  %9 = zext i32 %8 to i64
  %10 = getelementptr inbounds nuw ptr, ptr %5, i64 %9
  br label %22

11:                                               ; preds = %2
  %12 = getelementptr inbounds nuw i8, ptr %0, i64 8
  %13 = load ptr, ptr %12, align 8
  %14 = getelementptr inbounds nuw i8, ptr %13, i64 64
  %15 = load ptr, ptr %14, align 8
  %16 = getelementptr inbounds nuw i8, ptr %1, i64 112
  %17 = load i32, ptr %16, align 8
  %18 = add i32 %17, -1
  %19 = getelementptr i8, ptr %15, i64 16
  %.val = load ptr, ptr %19, align 8
  %20 = sext i32 %18 to i64
  %21 = getelementptr inbounds %union.ListCell, ptr %.val, i64 %20
  br label %22

22:                                               ; preds = %11, %6
  %.in = phi ptr [ %10, %6 ], [ %21, %11 ]
  %23 = load ptr, ptr %.in, align 8
  %24 = getelementptr inbounds nuw i8, ptr %23, i64 136
  %25 = load ptr, ptr %24, align 8
  %.not.i = icmp eq ptr %25, null
  br i1 %.not.i, label %list_length.exit, label %26

26:                                               ; preds = %22
  %27 = getelementptr inbounds nuw i8, ptr %25, i64 4
  %28 = load i32, ptr %27, align 4
  %29 = sitofp i32 %28 to double
  br label %list_length.exit

list_length.exit:                                 ; preds = %22, %26
  %30 = phi double [ %29, %26 ], [ 0.000000e+00, %22 ]
  %31 = getelementptr inbounds nuw i8, ptr %1, i64 200
  store double %30, ptr %31, align 8
  %32 = getelementptr inbounds nuw i8, ptr %1, i64 296
  %33 = load ptr, ptr %32, align 8
  %34 = tail call double @clauselist_selectivity(ptr noundef nonnull %0, ptr noundef %33, i32 noundef 0, i32 noundef 0, ptr noundef null) #17
  %35 = fmul double %30, %34
  %36 = fcmp ogt double %35, 1.000000e+100
  %37 = fcmp uno double %35, 0.000000e+00
  %or.cond.i.i = or i1 %36, %37
  br i1 %or.cond.i.i, label %clamp_row_est.exit.i, label %38

38:                                               ; preds = %list_length.exit
  %39 = fcmp ugt double %35, 1.000000e+00
  br i1 %39, label %40, label %clamp_row_est.exit.i

40:                                               ; preds = %38
  %41 = tail call double @llvm.rint.f64(double %35)
  br label %clamp_row_est.exit.i

clamp_row_est.exit.i:                             ; preds = %40, %38, %list_length.exit
  %.0.i.i = phi double [ %41, %40 ], [ 1.000000e+100, %list_length.exit ], [ 1.000000e+00, %38 ]
  %42 = getelementptr inbounds nuw i8, ptr %1, i64 16
  store double %.0.i.i, ptr %42, align 8
  %43 = load ptr, ptr %32, align 8
  call void @llvm.lifetime.start.p0(i64 24, ptr nonnull %3) #17
  store ptr %0, ptr %3, align 8
  %44 = getelementptr inbounds nuw i8, ptr %3, i64 8
  %45 = getelementptr inbounds nuw i8, ptr %43, i64 4
  %.not.i.i = icmp eq ptr %43, null
  call void @llvm.memset.p0.i64(ptr noundef nonnull align 8 dereferenceable(16) %44, i8 0, i64 16, i1 false)
  br i1 %.not.i.i, label %set_baserel_size_estimates.exit, label %.lr.ph.i.i

.lr.ph.i.i:                                       ; preds = %clamp_row_est.exit.i
  %46 = getelementptr inbounds nuw i8, ptr %43, i64 16
  %47 = load i32, ptr %45, align 4
  %48 = icmp sgt i32 %47, 0
  br i1 %48, label %.lr.ph16.i.i, label %set_baserel_size_estimates.exit

.lr.ph16.i.i:                                     ; preds = %.lr.ph.i.i, %.lr.ph16.i.i
  %indvars.iv.i.i = phi i64 [ %indvars.iv.next.i.i, %.lr.ph16.i.i ], [ 0, %.lr.ph.i.i ]
  %49 = load ptr, ptr %46, align 8
  %50 = getelementptr inbounds nuw %union.ListCell, ptr %49, i64 %indvars.iv.i.i
  %51 = load ptr, ptr %50, align 8
  %52 = call zeroext i1 @cost_qual_eval_walker(ptr noundef %51, ptr noundef nonnull %3)
  %indvars.iv.next.i.i = add nuw nsw i64 %indvars.iv.i.i, 1
  %53 = load i32, ptr %45, align 4
  %54 = sext i32 %53 to i64
  %55 = icmp slt i64 %indvars.iv.next.i.i, %54
  br i1 %55, label %.lr.ph16.i.i, label %set_baserel_size_estimates.exit

set_baserel_size_estimates.exit:                  ; preds = %.lr.ph16.i.i, %clamp_row_est.exit.i, %.lr.ph.i.i
  %56 = getelementptr inbounds nuw i8, ptr %1, i64 304
  call void @llvm.memcpy.p0.p0.i64(ptr noundef nonnull align 8 dereferenceable(16) %56, ptr noundef nonnull align 8 dereferenceable(16) %44, i64 16, i1 false)
  call void @llvm.lifetime.end.p0(i64 24, ptr nonnull %3) #17
  call fastcc void @set_rel_width(ptr noundef nonnull %0, ptr noundef %1)
  ret void
}